target datalayout = "e-m:e-p270:32:32-p271:32:32-p272:64:64-i64:64-i128:128-f80:128-n8:16:32:64-S128"
target triple = "x86_64-pc-linux-gnu"

%union.av_intfloat32 = type { i32 }

; Function Attrs: alwaysinline nounwind willreturn memory(none) uwtable
define internal i32 @av_bswap32(i32 noundef %0) #6 {
  %2 = alloca i32, align 4
  store i32 %0, ptr %2, align 4, !tbaa !30
  %3 = load i32, ptr %2, align 4, !tbaa !30
  %4 = shl i32 %3, 8
  %5 = and i32 %4, 65280
  %6 = load i32, ptr %2, align 4, !tbaa !30
  %7 = lshr i32 %6, 8
  %8 = and i32 %7, 255
  %9 = or i32 %5, %8
  %10 = shl i32 %9, 16
  %11 = load i32, ptr %2, align 4, !tbaa !30
  %12 = lshr i32 %11, 16
  %13 = shl i32 %12, 8
  %14 = and i32 %13, 65280
  %15 = load i32, ptr %2, align 4, !tbaa !30
  %16 = lshr i32 %15, 16
  %17 = lshr i32 %16, 8
  %18 = and i32 %17, 255
  %19 = or i32 %14, %18
  %20 = or i32 %10, %19
  ret i32 %20
}

; Function Attrs: alwaysinline nounwind uwtable
define internal i32 @av_float2int(float noundef %0) #3 {
  %2 = alloca float, align 4
  %3 = alloca %union.av_intfloat32, align 4
  store float %0, ptr %2, align 4, !tbaa !121
  call void @llvm.lifetime.start.p0(i64 4, ptr %3) #8
  %4 = load float, ptr %2, align 4, !tbaa !121
  store float %4, ptr %3, align 4, !tbaa !51
  %5 = load i32, ptr %3, align 4, !tbaa !51
  call void @llvm.lifetime.end.p0(i64 4, ptr %3) #8
  ret i32 %5
}

; Function Attrs: alwaysinline nounwind willreturn memory(none) uwtable
define internal zeroext i16 @av_clip_uint16_c(i32 noundef %0) #6 {
  %2 = alloca i16, align 2
  %3 = alloca i32, align 4
  store i32 %0, ptr %3, align 4, !tbaa !30
  %4 = load i32, ptr %3, align 4, !tbaa !30
  %5 = and i32 %4, -65536
  %6 = icmp ne i32 %5, 0
  br i1 %6, label %7, label %12

7:                                                ; preds = %1
  %8 = load i32, ptr %3, align 4, !tbaa !30
  %9 = xor i32 %8, -1
  %10 = ashr i32 %9, 31
  %11 = trunc i32 %10 to i16
  store i16 %11, ptr %2, align 2
  br label %15

12:                                               ; preds = %1
  %13 = load i32, ptr %3, align 4, !tbaa !30
  %14 = trunc i32 %13 to i16
  store i16 %14, ptr %2, align 2
  br label %15

15:                                               ; preds = %12, %7
  %16 = load i16, ptr %2, align 2
  ret i16 %16
}

; Function Attrs: alwaysinline nounwind uwtable
define internal void @yuv2plane1_float_bswap_c_template(ptr noundef %0, ptr noundef %1, i32 noundef %2) #3 {
  %4 = alloca ptr, align 8
  %5 = alloca ptr, align 8
  %6 = alloca i32, align 4
  %7 = alloca i32, align 4
  %8 = alloca i32, align 4
  %9 = alloca i16, align 2
  store ptr %0, ptr %4, align 8, !tbaa !61
  store ptr %1, ptr %5, align 8, !tbaa !61
  store i32 %2, ptr %6, align 4, !tbaa !30
  call void @llvm.lifetime.start.p0(i64 4, ptr %7) #8
  call void @llvm.lifetime.start.p0(i64 4, ptr %8) #8
  call void @llvm.lifetime.start.p0(i64 2, ptr %9) #8
  store i32 0, ptr %7, align 4, !tbaa !30
  br label %10

10:                                               ; preds = %36, %3
  %11 = load i32, ptr %7, align 4, !tbaa !30
  %12 = load i32, ptr %6, align 4, !tbaa !30
  %13 = icmp slt i32 %11, %12
  br i1 %13, label %14, label %39

14:                                               ; preds = %10
  %15 = load ptr, ptr %4, align 8, !tbaa !61
  %16 = load i32, ptr %7, align 4, !tbaa !30
  %17 = sext i32 %16 to i64
  %18 = getelementptr inbounds i32, ptr %15, i64 %17
  %19 = load i32, ptr %18, align 4, !tbaa !30
  %20 = add nsw i32 %19, 4
  store i32 %20, ptr %8, align 4, !tbaa !30
  %21 = load i32, ptr %8, align 4, !tbaa !30
  %22 = ashr i32 %21, 3
  %23 = call zeroext i16 @av_clip_uint16_c(i32 noundef %22) #10
  %24 = zext i16 %23 to i32
  %25 = add nsw i32 0, %24
  %26 = trunc i32 %25 to i16
  store i16 %26, ptr %9, align 2, !tbaa !51
  %27 = load i16, ptr %9, align 2, !tbaa !49
  %28 = uitofp i16 %27 to float
  %29 = fmul nsz float 0x3EF0001000000000, %28
  %30 = call i32 @av_float2int(float noundef %29)
  %31 = call i32 @av_bswap32(i32 noundef %30) #10
  %32 = load ptr, ptr %5, align 8, !tbaa !61
  %33 = load i32, ptr %7, align 4, !tbaa !30
  %34 = sext i32 %33 to i64
  %35 = getelementptr inbounds i32, ptr %32, i64 %34
  store i32 %31, ptr %35, align 4, !tbaa !30
  br label %36

36:                                               ; preds = %14
  %37 = load i32, ptr %7, align 4, !tbaa !30
  %38 = add nsw i32 %37, 1
  store i32 %38, ptr %7, align 4, !tbaa !30
  br label %10, !llvm.loop !123

39:                                               ; preds = %10
  call void @llvm.lifetime.end.p0(i64 2, ptr %9) #8
  call void @llvm.lifetime.end.p0(i64 4, ptr %8) #8
  call void @llvm.lifetime.end.p0(i64 4, ptr %7) #8
  ret void
}

; Function Attrs: nounwind uwtable
define internal void @yuv2plane1_floatBE_c(ptr noundef %0, ptr noundef %1, i32 noundef %2, ptr noundef %3, i32 noundef %4) #4 {
  %6 = alloca ptr, align 8
  %7 = alloca ptr, align 8
  %8 = alloca i32, align 4
  %9 = alloca ptr, align 8
  %10 = alloca i32, align 4
  store ptr %0, ptr %6, align 8, !tbaa !45
  store ptr %1, ptr %7, align 8, !tbaa !46
  store i32 %2, ptr %8, align 4, !tbaa !30
  store ptr %3, ptr %9, align 8, !tbaa !46
  store i32 %4, ptr %10, align 4, !tbaa !30
  %11 = load ptr, ptr %6, align 8, !tbaa !45
  %12 = load ptr, ptr %7, align 8, !tbaa !46
  %13 = load i32, ptr %8, align 4, !tbaa !30
  call void @yuv2plane1_float_bswap_c_template(ptr noundef %11, ptr noundef %12, i32 noundef %13)
  ret void
}