; Function Attrs: nofree norecurse nosync nounwind memory(argmem: readwrite) uwtable
define internal void @yuv2plane1_floatBE_c(ptr noundef readonly captures(none) %0, ptr noundef writeonly captures(none) %1, i32 noundef %2, ptr readnone captures(none) %3, i32 %4) #2 {
  %6 = icmp sgt i32 %2, 0
  br i1 %6, label %.lr.ph.preheader, label %yuv2plane1_float_bswap_c_template.exit

.lr.ph.preheader:                                 ; preds = %5
  %wide.trip.count = zext nneg i32 %2 to i64
  br label %.lr.ph

.lr.ph:                                           ; preds = %.lr.ph.preheader, %.lr.ph
  %indvars.iv = phi i64 [ 0, %.lr.ph.preheader ], [ %indvars.iv.next, %.lr.ph ]
  %7 = getelementptr inbounds nuw i32, ptr %0, i64 %indvars.iv
  %8 = load i32, ptr %7, align 4, !tbaa !49
  %9 = add nsw i32 %8, 4
  %10 = ashr i32 %9, 3
  %.not.i.i = icmp ult i32 %10, 65536
  %isnotneg.i.i = icmp sgt i32 %10, -1
  %11 = sext i1 %isnotneg.i.i to i16
  %12 = trunc nuw i32 %10 to i16
  %.0.i.i = select i1 %.not.i.i, i16 %12, i16 %11
  %13 = uitofp i16 %.0.i.i to float
  %14 = fmul nsz float %13, 0x3EF0001000000000
  %15 = bitcast float %14 to i32
  %16 = tail call i32 @llvm.bswap.i32(i32 %15)
  %17 = getelementptr inbounds nuw i32, ptr %1, i64 %indvars.iv
  store i32 %16, ptr %17, align 4, !tbaa !49
  %indvars.iv.next = add nuw nsw i64 %indvars.iv, 1
  %exitcond.not = icmp eq i64 %indvars.iv.next, %wide.trip.count
  br i1 %exitcond.not, label %yuv2plane1_float_bswap_c_template.exit, label %.lr.ph, !llvm.loop !60

yuv2plane1_float_bswap_c_template.exit:           ; preds = %.lr.ph, %5
  ret void
}